; ModuleID = '6/310.cpp'
source_filename = "6/310.cpp"
target datalayout = "e-m:e-p270:32:32-p271:32:32-p272:64:64-i64:64-f80:128-n8:16:32:64-S128"
target triple = "x86_64-pc-linux-gnu"

%"class.std::ios_base::Init" = type { i8 }
%"class.std::basic_istream" = type { i32 (...)**, i64, %"class.std::basic_ios" }
%"class.std::basic_ios" = type { %"class.std::ios_base", %"class.std::basic_ostream"*, i8, i8, %"class.std::basic_streambuf"*, %"class.std::ctype"*, %"class.std::num_put"*, %"class.std::num_get"* }
%"class.std::ios_base" = type { i32 (...)**, i64, i64, i32, i32, i32, %"struct.std::ios_base::_Callback_list"*, %"struct.std::ios_base::_Words", [8 x %"struct.std::ios_base::_Words"], i32, %"struct.std::ios_base::_Words"*, %"class.std::locale" }
%"struct.std::ios_base::_Callback_list" = type { %"struct.std::ios_base::_Callback_list"*, void (i32, %"class.std::ios_base"*, i32)*, i32, i32 }
%"struct.std::ios_base::_Words" = type { i8*, i64 }
%"class.std::locale" = type { %"class.std::locale::_Impl"* }
%"class.std::locale::_Impl" = type { i32, %"class.std::locale::facet"**, i64, %"class.std::locale::facet"**, i8** }
%"class.std::locale::facet" = type <{ i32 (...)**, i32, [4 x i8] }>
%"class.std::basic_ostream" = type { i32 (...)**, %"class.std::basic_ios" }
%"class.std::basic_streambuf" = type { i32 (...)**, i8*, i8*, i8*, i8*, i8*, i8*, %"class.std::locale" }
%"class.std::ctype" = type <{ %"class.std::locale::facet.base", [4 x i8], %struct.__locale_struct*, i8, [7 x i8], i32*, i32*, i16*, i8, [256 x i8], [256 x i8], i8, [6 x i8] }>
%"class.std::locale::facet.base" = type <{ i32 (...)**, i32 }>
%struct.__locale_struct = type { [13 x %struct.__locale_data*], i16*, i32*, i32*, [13 x i8*] }
%struct.__locale_data = type opaque
%"class.std::num_put" = type { %"class.std::locale::facet.base", [4 x i8] }
%"class.std::num_get" = type { %"class.std::locale::facet.base", [4 x i8] }

@_ZStL8__ioinit = internal global %"class.std::ios_base::Init" zeroinitializer, align 1
@__dso_handle = external hidden global i8
@_ZSt3cin = external dso_local global %"class.std::basic_istream", align 8
@_ZSt4cout = external dso_local global %"class.std::basic_ostream", align 8
@llvm.global_ctors = appending global [1 x { i32, void ()*, i8* }] [{ i32, void ()*, i8* } { i32 65535, void ()* @_GLOBAL__sub_I_310.cpp, i8* null }]

; Function Attrs: noinline uwtable
define internal void @__cxx_global_var_init() #0 section ".text.startup" {
  call void @_ZNSt8ios_base4InitC1Ev(%"class.std::ios_base::Init"* @_ZStL8__ioinit)
  %1 = call i32 @__cxa_atexit(void (i8*)* bitcast (void (%"class.std::ios_base::Init"*)* @_ZNSt8ios_base4InitD1Ev to void (i8*)*), i8* getelementptr inbounds (%"class.std::ios_base::Init", %"class.std::ios_base::Init"* @_ZStL8__ioinit, i32 0, i32 0), i8* @__dso_handle) #3
  ret void
}

declare dso_local void @_ZNSt8ios_base4InitC1Ev(%"class.std::ios_base::Init"*) unnamed_addr #1

; Function Attrs: nounwind
declare dso_local void @_ZNSt8ios_base4InitD1Ev(%"class.std::ios_base::Init"*) unnamed_addr #2

; Function Attrs: nounwind
declare dso_local i32 @__cxa_atexit(void (i8*)*, i8*, i8*) #3

; Function Attrs: noinline norecurse uwtable
define dso_local i32 @main() #4 {
  %1 = alloca i32, align 4
  %2 = alloca i32, align 4
  %3 = alloca i32, align 4
  %4 = alloca i32, align 4
  %5 = alloca i32, align 4
  %6 = alloca i32*, align 8
  %7 = alloca [100 x [100 x i32]], align 16
  %8 = alloca i32, align 4
  store i32 0, i32* %1, align 4
  store i32* null, i32** %6, align 8
  store i32 0, i32* %8, align 4
  %9 = call dereferenceable(280) %"class.std::basic_istream"* @_ZNSirsERi(%"class.std::basic_istream"* @_ZSt3cin, i32* dereferenceable(4) %2)
  store i32 0, i32* %3, align 4
  br label %10

10:                                               ; preds = %130, %0
  %11 = load i32, i32* %3, align 4
  %12 = load i32, i32* %2, align 4
  %13 = icmp slt i32 %11, %12
  br i1 %13, label %14, label %133

14:                                               ; preds = %10
  store i32 0, i32* %8, align 4
  %15 = call dereferenceable(280) %"class.std::basic_istream"* @_ZNSirsERi(%"class.std::basic_istream"* @_ZSt3cin, i32* dereferenceable(4) %4)
  %16 = call dereferenceable(280) %"class.std::basic_istream"* @_ZNSirsERi(%"class.std::basic_istream"* %15, i32* dereferenceable(4) %5)
  %17 = getelementptr inbounds [100 x [100 x i32]], [100 x [100 x i32]]* %7, i64 0, i64 0
  %18 = getelementptr inbounds [100 x i32], [100 x i32]* %17, i64 0, i64 0
  store i32* %18, i32** %6, align 8
  br label %19

19:                                               ; preds = %32, %14
  %20 = load i32*, i32** %6, align 8
  %21 = getelementptr inbounds [100 x [100 x i32]], [100 x [100 x i32]]* %7, i64 0, i64 0
  %22 = getelementptr inbounds [100 x i32], [100 x i32]* %21, i64 0, i64 0
  %23 = load i32, i32* %4, align 4
  %24 = load i32, i32* %5, align 4
  %25 = mul nsw i32 %23, %24
  %26 = sext i32 %25 to i64
  %27 = getelementptr inbounds i32, i32* %22, i64 %26
  %28 = icmp ult i32* %20, %27
  br i1 %28, label %29, label %35

29:                                               ; preds = %19
  %30 = load i32*, i32** %6, align 8
  %31 = call dereferenceable(280) %"class.std::basic_istream"* @_ZNSirsERi(%"class.std::basic_istream"* @_ZSt3cin, i32* dereferenceable(4) %30)
  br label %32

32:                                               ; preds = %29
  %33 = load i32*, i32** %6, align 8
  %34 = getelementptr inbounds i32, i32* %33, i32 1
  store i32* %34, i32** %6, align 8
  br label %19

35:                                               ; preds = %19
  %36 = getelementptr inbounds [100 x [100 x i32]], [100 x [100 x i32]]* %7, i64 0, i64 0
  %37 = getelementptr inbounds [100 x i32], [100 x i32]* %36, i64 0, i64 0
  store i32* %37, i32** %6, align 8
  br label %38

38:                                               ; preds = %123, %35
  %39 = load i32*, i32** %6, align 8
  %40 = getelementptr inbounds [100 x [100 x i32]], [100 x [100 x i32]]* %7, i64 0, i64 0
  %41 = getelementptr inbounds [100 x i32], [100 x i32]* %40, i64 0, i64 0
  %42 = load i32, i32* %4, align 4
  %43 = load i32, i32* %5, align 4
  %44 = mul nsw i32 %42, %43
  %45 = sext i32 %44 to i64
  %46 = getelementptr inbounds i32, i32* %41, i64 %45
  %47 = icmp ult i32* %39, %46
  br i1 %47, label %48, label %126

48:                                               ; preds = %38
  %49 = load i32*, i32** %6, align 8
  %50 = getelementptr inbounds [100 x [100 x i32]], [100 x [100 x i32]]* %7, i64 0, i64 0
  %51 = getelementptr inbounds [100 x i32], [100 x i32]* %50, i64 0, i64 0
  %52 = icmp uge i32* %49, %51
  br i1 %52, label %53, label %67

53:                                               ; preds = %48
  %54 = load i32*, i32** %6, align 8
  %55 = getelementptr inbounds [100 x [100 x i32]], [100 x [100 x i32]]* %7, i64 0, i64 0
  %56 = getelementptr inbounds [100 x i32], [100 x i32]* %55, i64 0, i64 0
  %57 = load i32, i32* %5, align 4
  %58 = sext i32 %57 to i64
  %59 = getelementptr inbounds i32, i32* %56, i64 %58
  %60 = getelementptr inbounds i32, i32* %59, i64 -1
  %61 = icmp ule i32* %54, %60
  br i1 %61, label %62, label %67

62:                                               ; preds = %53
  %63 = load i32*, i32** %6, align 8
  %64 = load i32, i32* %63, align 4
  %65 = load i32, i32* %8, align 4
  %66 = add nsw i32 %65, %64
  store i32 %66, i32* %8, align 4
  br label %123

67:                                               ; preds = %53, %48
  %68 = load i32*, i32** %6, align 8
  %69 = getelementptr inbounds [100 x [100 x i32]], [100 x [100 x i32]]* %7, i64 0, i64 0
  %70 = getelementptr inbounds [100 x i32], [100 x i32]* %69, i64 0, i64 0
  %71 = ptrtoint i32* %68 to i64
  %72 = ptrtoint i32* %70 to i64
  %73 = sub i64 %71, %72
  %74 = sdiv exact i64 %73, 4
  %75 = load i32, i32* %5, align 4
  %76 = sext i32 %75 to i64
  %77 = srem i64 %74, %76
  %78 = icmp eq i64 %77, 0
  br i1 %78, label %79, label %92

79:                                               ; preds = %67
  %80 = load i32*, i32** %6, align 8
  %81 = load i32, i32* %80, align 4
  %82 = load i32, i32* %8, align 4
  %83 = add nsw i32 %82, %81
  store i32 %83, i32* %8, align 4
  %84 = load i32*, i32** %6, align 8
  %85 = load i32, i32* %5, align 4
  %86 = sext i32 %85 to i64
  %87 = getelementptr inbounds i32, i32* %84, i64 %86
  %88 = getelementptr inbounds i32, i32* %87, i64 -1
  %89 = load i32, i32* %88, align 4
  %90 = load i32, i32* %8, align 4
  %91 = add nsw i32 %90, %89
  store i32 %91, i32* %8, align 4
  br label %123

92:                                               ; preds = %67
  %93 = load i32*, i32** %6, align 8
  %94 = getelementptr inbounds [100 x [100 x i32]], [100 x [100 x i32]]* %7, i64 0, i64 0
  %95 = getelementptr inbounds [100 x i32], [100 x i32]* %94, i64 0, i64 0
  %96 = load i32, i32* %4, align 4
  %97 = load i32, i32* %5, align 4
  %98 = mul nsw i32 %96, %97
  %99 = sext i32 %98 to i64
  %100 = getelementptr inbounds i32, i32* %95, i64 %99
  %101 = load i32, i32* %5, align 4
  %102 = sext i32 %101 to i64
  %103 = sub i64 0, %102
  %104 = getelementptr inbounds i32, i32* %100, i64 %103
  %105 = icmp uge i32* %93, %104
  br i1 %105, label %106, label %122

106:                                              ; preds = %92
  %107 = load i32*, i32** %6, align 8
  %108 = getelementptr inbounds [100 x [100 x i32]], [100 x [100 x i32]]* %7, i64 0, i64 0
  %109 = getelementptr inbounds [100 x i32], [100 x i32]* %108, i64 0, i64 0
  %110 = load i32, i32* %4, align 4
  %111 = load i32, i32* %5, align 4
  %112 = mul nsw i32 %110, %111
  %113 = sext i32 %112 to i64
  %114 = getelementptr inbounds i32, i32* %109, i64 %113
  %115 = getelementptr inbounds i32, i32* %114, i64 -1
  %116 = icmp ult i32* %107, %115
  br i1 %116, label %117, label %122

117:                                              ; preds = %106
  %118 = load i32*, i32** %6, align 8
  %119 = load i32, i32* %118, align 4
  %120 = load i32, i32* %8, align 4
  %121 = add nsw i32 %120, %119
  store i32 %121, i32* %8, align 4
  br label %123

122:                                              ; preds = %106, %92
  br label %123

123:                                              ; preds = %122, %117, %79, %62
  %124 = load i32*, i32** %6, align 8
  %125 = getelementptr inbounds i32, i32* %124, i32 1
  store i32* %125, i32** %6, align 8
  br label %38

126:                                              ; preds = %38
  %127 = load i32, i32* %8, align 4
  %128 = call dereferenceable(272) %"class.std::basic_ostream"* @_ZNSolsEi(%"class.std::basic_ostream"* @_ZSt4cout, i32 %127)
  %129 = call dereferenceable(272) %"class.std::basic_ostream"* @_ZNSolsEPFRSoS_E(%"class.std::basic_ostream"* %128, %"class.std::basic_ostream"* (%"class.std::basic_ostream"*)* @_ZSt4endlIcSt11char_traitsIcEERSt13basic_ostreamIT_T0_ES6_)
  br label %130

130:                                              ; preds = %126
  %131 = load i32, i32* %3, align 4
  %132 = add nsw i32 %131, 1
  store i32 %132, i32* %3, align 4
  br label %10

133:                                              ; preds = %10
  ret i32 0
}

declare dso_local dereferenceable(280) %"class.std::basic_istream"* @_ZNSirsERi(%"class.std::basic_istream"*, i32* dereferenceable(4)) #1

declare dso_local dereferenceable(272) %"class.std::basic_ostream"* @_ZNSolsEi(%"class.std::basic_ostream"*, i32) #1

declare dso_local dereferenceable(272) %"class.std::basic_ostream"* @_ZNSolsEPFRSoS_E(%"class.std::basic_ostream"*, %"class.std::basic_ostream"* (%"class.std::basic_ostream"*)*) #1

declare dso_local dereferenceable(272) %"class.std::basic_ostream"* @_ZSt4endlIcSt11char_traitsIcEERSt13basic_ostreamIT_T0_ES6_(%"class.std::basic_ostream"* dereferenceable(272)) #1

; Function Attrs: noinline uwtable
define internal void @_GLOBAL__sub_I_310.cpp() #0 section ".text.startup" {
  call void @__cxx_global_var_init()
  ret void
}


!llvm.module.flags = !{!0}
!llvm.ident = !{!1}

!0 = !{i32 1, !"wchar_size", i32 4}
!1 = !{!"clang version 10.0.0-4ubuntu1 "}
